target datalayout = "e-m:e-p270:32:32-p271:32:32-p272:64:64-i64:64-i128:128-f80:128-n8:16:32:64-S128"
target triple = "x86_64-pc-linux-gnu"

%struct.vinfo_list = type { [16 x i32], i32 }

@.str.361 = private unnamed_addr constant [55 x i8] c"versioninfo_cb: type: %x, name: %x, lang: %x, rva: %x\0A\00", align 1

; Function Attrs: nounwind uwtable
define internal i32 @versioninfo_cb(ptr noundef %0, i32 noundef %1, i32 noundef %2, i32 noundef %3, i32 noundef %4) #0 {
  %6 = alloca i32, align 4
  %7 = alloca ptr, align 8
  %8 = alloca i32, align 4
  %9 = alloca i32, align 4
  %10 = alloca i32, align 4
  %11 = alloca i32, align 4
  %12 = alloca ptr, align 8
  store ptr %0, ptr %7, align 8
  store i32 %1, ptr %8, align 4
  store i32 %2, ptr %9, align 4
  store i32 %3, ptr %10, align 4
  store i32 %4, ptr %11, align 4
  %13 = load ptr, ptr %7, align 8
  store ptr %13, ptr %12, align 8
  %14 = load i32, ptr %8, align 4
  %15 = load i32, ptr %9, align 4
  %16 = load i32, ptr %10, align 4
  %17 = load i32, ptr %11, align 4
  call void (ptr, ...) @cli_dbgmsg(ptr noundef @.str.361, i32 noundef %14, i32 noundef %15, i32 noundef %16, i32 noundef %17)
  %18 = load i32, ptr %11, align 4
  %19 = load ptr, ptr %12, align 8
  %20 = getelementptr inbounds %struct.vinfo_list, ptr %19, i32 0, i32 0
  %21 = load ptr, ptr %12, align 8
  %22 = getelementptr inbounds %struct.vinfo_list, ptr %21, i32 0, i32 1
  %23 = load i32, ptr %22, align 4
  %24 = zext i32 %23 to i64
  %25 = getelementptr inbounds [16 x i32], ptr %20, i64 0, i64 %24
  store i32 %18, ptr %25, align 4
  %26 = load ptr, ptr %12, align 8
  %27 = getelementptr inbounds %struct.vinfo_list, ptr %26, i32 0, i32 1
  %28 = load i32, ptr %27, align 4
  %29 = add i32 %28, 1
  store i32 %29, ptr %27, align 4
  %30 = zext i32 %29 to i64
  %31 = icmp eq i64 %30, 16
  br i1 %31, label %32, label %33

32:                                               ; preds = %5
  store i32 1, ptr %6, align 4
  br label %34

33:                                               ; preds = %5
  store i32 0, ptr %6, align 4
  br label %34

34:                                               ; preds = %33, %32
  %35 = load i32, ptr %6, align 4
  ret i32 %35
}