; Function Attrs: nounwind uwtable
define internal i32 @versioninfo_cb(ptr nocapture noundef %0, i32 noundef %1, i32 noundef %2, i32 noundef %3, i32 noundef %4) #1 {
  tail call void (ptr, ...) @cli_dbgmsg(ptr noundef nonnull @.str.361, i32 noundef %1, i32 noundef %2, i32 noundef %3, i32 noundef %4) #20
  %6 = getelementptr inbounds i8, ptr %0, i64 64
  %7 = load i32, ptr %6, align 4
  %8 = zext i32 %7 to i64
  %9 = getelementptr inbounds [16 x i32], ptr %0, i64 0, i64 %8
  store i32 %4, ptr %9, align 4
  %10 = load i32, ptr %6, align 4
  %11 = add i32 %10, 1
  store i32 %11, ptr %6, align 4
  %12 = icmp eq i32 %11, 16
  %. = zext i1 %12 to i32
  ret i32 %.
}